target datalayout = "e-m:e-p270:32:32-p271:32:32-p272:64:64-i64:64-i128:128-f80:128-n8:16:32:64-S128"
target triple = "x86_64-pc-linux-gnu"

%union.pthread_mutex_t = type { %struct.__pthread_mutex_s }
%struct.__pthread_mutex_s = type { i32, i32, i32, i32, i32, i16, i16, %struct.__pthread_internal_list }
%struct.__pthread_internal_list = type { ptr, ptr }
%struct.slurm_conf_t = type { i64, ptr, i16, ptr, ptr, ptr, ptr, ptr, i16, ptr, ptr, ptr, ptr, ptr, ptr, ptr, i16, ptr, ptr, ptr, ptr, i16, ptr, ptr, ptr, i64, ptr, ptr, ptr, ptr, i16, ptr, ptr, i16, i32, ptr, i32, ptr, i32, i32, ptr, ptr, i64, i64, ptr, i16, i16, ptr, i32, i32, ptr, i32, ptr, i32, i16, i16, i16, ptr, i16, i16, ptr, ptr, i32, i16, i16, ptr, i32, i16, ptr, ptr, ptr, ptr, i16, ptr, ptr, ptr, ptr, i32, ptr, ptr, ptr, ptr, i16, i16, ptr, i32, i32, i32, i16, i16, ptr, ptr, i16, ptr, ptr, i32, i32, i32, i32, i32, i64, i32, i32, i16, ptr, ptr, i32, ptr, ptr, ptr, i16, i32, ptr, ptr, i16, ptr, ptr, i32, i16, ptr, ptr, ptr, ptr, i32, i32, i16, i16, i32, ptr, i16, ptr, i32, i32, i32, i32, i32, i32, ptr, i16, ptr, ptr, i32, i16, ptr, i32, i16, i16, ptr, ptr, ptr, i16, ptr, ptr, ptr, ptr, i16, i16, ptr, i16, ptr, i16, ptr, i16, ptr, i16, ptr, ptr, ptr, ptr, i16, ptr, ptr, ptr, i32, ptr, i32, ptr, ptr, i16, ptr, ptr, i32, i16, ptr, ptr, i16, i16, ptr, i16, ptr, ptr, ptr, i32, ptr, i16, i16, ptr, ptr, ptr, ptr, ptr, ptr, ptr, ptr, i16, i32, i16, ptr, ptr, ptr, ptr, i32, ptr, ptr, ptr, i16, ptr, ptr, ptr, i16, ptr, i16, ptr, i16, i16, ptr }
%struct.job_record = type { i32, ptr, ptr, ptr, ptr, i16, i32, i32, i32, ptr, i32, ptr, ptr, i16, ptr, double, i64, ptr, ptr, ptr, ptr, ptr, ptr, i32, ptr, i32, i64, i64, i32, i32, ptr, i16, i64, i64, i8, i32, ptr, ptr, ptr, ptr, ptr, ptr, ptr, ptr, i32, ptr, ptr, i32, ptr, i32, ptr, i32, ptr, i32, ptr, ptr, ptr, ptr, ptr, ptr, i32, i16, i64, ptr, ptr, ptr, ptr, %struct.acct_policy_limit_set_t, i16, ptr, ptr, ptr, ptr, ptr, i32, ptr, ptr, ptr, ptr, ptr, i32, i32, ptr, ptr, ptr, i16, ptr, ptr, i8, ptr, ptr, i64, i64, i8, i32, i32, i8, i32, ptr, i32, i64, i32, ptr, ptr, ptr, i8, i16, i64, i32, ptr, ptr, ptr, ptr, ptr, i16, i32, ptr, ptr, ptr, ptr, i32, ptr, i32, i16, i64, ptr, i32, i32, ptr, i64, ptr, ptr, i64, i32, i32, i64, i32, i32, ptr, ptr, ptr, ptr, ptr, ptr, ptr, ptr, ptr, ptr, ptr, ptr, i32, ptr, i16, i16, i16, i16, ptr, i32, i32, i8, i64 }
%struct.acct_policy_limit_set_t = type { i16, i16, ptr }
%struct.job_fed_details_t = type { i32, ptr, i64, ptr, i64, ptr }
%struct.slurmdb_cluster_rec = type { ptr, i16, i64, %struct.sockaddr_storage, ptr, i32, i16, ptr, i16, %struct.slurmdb_cluster_fed_t, i32, %union.pthread_mutex_t, ptr, ptr, ptr, i16, ptr, ptr }
%struct.sockaddr_storage = type { i16, [118 x i8], i64 }
%struct.slurmdb_cluster_fed_t = type { ptr, i32, ptr, ptr, ptr, i32, i8, i8 }

@fed_mgr_cluster_rec = dso_local global ptr null, align 8
@.str.1 = private unnamed_addr constant [29 x i8] c"%s: pthread_mutex_lock(): %m\00", align 1
@.str.2 = private unnamed_addr constant [31 x i8] c"%s: pthread_mutex_unlock(): %m\00", align 1
@dep_job_list_mutex = internal global %union.pthread_mutex_t zeroinitializer, align 8
@remote_dep_job_list = internal global ptr null, align 8
@slurm_conf = external global %struct.slurm_conf_t, align 8
@job_list = external global ptr, align 8
@.str.163 = private unnamed_addr constant [49 x i8] c"FEDR: %s: Remove all jobs in remote_dep_job_list\00", align 1
@__func__._cleanup_removed_origin_jobs = private unnamed_addr constant [29 x i8] c"_cleanup_removed_origin_jobs\00", align 1
@.str.183 = private unnamed_addr constant [28 x i8] c"job %pJ not a federated job\00", align 1

; Function Attrs: nounwind uwtable
define dso_local i32 @fed_mgr_get_cluster_id(i32 noundef %0) #0 {
  %2 = alloca i32, align 4
  store i32 %0, ptr %2, align 4
  %3 = load i32, ptr %2, align 4
  %4 = lshr i32 %3, 26
  ret i32 %4
}

; Function Attrs: nounwind uwtable
define internal i32 @_is_fed_job(ptr noundef %0, ptr noundef %1) #0 {
  %3 = alloca i32, align 4
  %4 = alloca ptr, align 8
  %5 = alloca ptr, align 8
  store ptr %0, ptr %4, align 8
  store ptr %1, ptr %5, align 8
  %6 = load ptr, ptr @fed_mgr_cluster_rec, align 8
  %7 = icmp ne ptr %6, null
  br i1 %7, label %9, label %8

8:                                                ; preds = %2
  store i32 0, ptr %3, align 4
  br label %32

9:                                                ; preds = %2
  %10 = load ptr, ptr %4, align 8
  %11 = getelementptr inbounds nuw %struct.job_record, ptr %10, i32 0, i32 39
  %12 = load ptr, ptr %11, align 8
  %13 = icmp ne ptr %12, null
  br i1 %13, label %14, label %21

14:                                               ; preds = %9
  %15 = load ptr, ptr %4, align 8
  %16 = getelementptr inbounds nuw %struct.job_record, ptr %15, i32 0, i32 53
  %17 = load i32, ptr %16, align 8
  %18 = call i32 @fed_mgr_get_cluster_id(i32 noundef %17)
  %19 = load ptr, ptr %5, align 8
  store i32 %18, ptr %19, align 4
  %20 = icmp ne i32 %18, 0
  br i1 %20, label %31, label %21

21:                                               ; preds = %14, %9
  br label %22

22:                                               ; preds = %21
  br label %23

23:                                               ; preds = %22
  %24 = call i32 @get_log_level()
  %25 = icmp sge i32 %24, 6
  br i1 %25, label %26, label %28

26:                                               ; preds = %23
  %27 = load ptr, ptr %4, align 8
  call void (i32, ptr, ...) @log_var(i32 noundef 6, ptr noundef @.str.183, ptr noundef %27)
  br label %28

28:                                               ; preds = %26, %23
  br label %29

29:                                               ; preds = %28
  br label %30

30:                                               ; preds = %29
  store i32 0, ptr %3, align 4
  br label %32

31:                                               ; preds = %14
  store i32 1, ptr %3, align 4
  br label %32

32:                                               ; preds = %31, %30, %8
  %33 = load i32, ptr %3, align 4
  ret i32 %33
}

; Function Attrs: nounwind uwtable
define internal void @_cleanup_removed_origin_jobs() #0 {
  %1 = alloca ptr, align 8
  %2 = alloca ptr, align 8
  %3 = alloca i64, align 8
  %4 = alloca i32, align 4
  %5 = alloca i32, align 4
  %6 = alloca i64, align 8
  %7 = alloca i32, align 4
  %8 = alloca i8, align 1
  %9 = alloca i64, align 8
  %10 = alloca i32, align 4
  %11 = alloca i32, align 4
  call void @llvm.lifetime.start.p0(i64 8, ptr %1) #9
  call void @llvm.lifetime.start.p0(i64 8, ptr %2) #9
  call void @llvm.lifetime.start.p0(i64 8, ptr %3) #9
  %12 = call i64 @time(ptr noundef null) #9
  store i64 %12, ptr %3, align 8
  call void @llvm.lifetime.start.p0(i64 4, ptr %4) #9
  call void @llvm.lifetime.start.p0(i64 4, ptr %5) #9
  call void @llvm.lifetime.start.p0(i64 8, ptr %6) #9
  %13 = load ptr, ptr @fed_mgr_cluster_rec, align 8
  %14 = icmp ne ptr %13, null
  br i1 %14, label %16, label %15

15:                                               ; preds = %0
  store i32 1, ptr %7, align 4
  br label %186

16:                                               ; preds = %0
  %17 = load ptr, ptr @fed_mgr_cluster_rec, align 8
  %18 = getelementptr inbounds nuw %struct.slurmdb_cluster_rec, ptr %17, i32 0, i32 9
  %19 = getelementptr inbounds nuw %struct.slurmdb_cluster_fed_t, ptr %18, i32 0, i32 1
  %20 = load i32, ptr %19, align 8
  store i32 %20, ptr %5, align 4
  %21 = load i32, ptr %5, align 4
  %22 = sub i32 %21, 1
  %23 = zext i32 %22 to i64
  %24 = shl i64 1, %23
  store i64 %24, ptr %6, align 8
  %25 = load ptr, ptr @job_list, align 8
  %26 = call ptr @list_iterator_create(ptr noundef %25)
  store ptr %26, ptr %1, align 8
  br label %27

27:                                               ; preds = %142, %140, %16
  %28 = load ptr, ptr %1, align 8
  %29 = call ptr @list_next(ptr noundef %28)
  store ptr %29, ptr %2, align 8
  %30 = icmp ne ptr %29, null
  br i1 %30, label %31, label %143

31:                                               ; preds = %27
  call void @llvm.lifetime.start.p0(i64 1, ptr %8) #9
  store i8 0, ptr %8, align 1
  call void @llvm.lifetime.start.p0(i64 8, ptr %9) #9
  %32 = load ptr, ptr %2, align 8
  %33 = getelementptr inbounds nuw %struct.job_record, ptr %32, i32 0, i32 60
  %34 = load i32, ptr %33, align 8
  %35 = and i32 %34, 255
  %36 = icmp ugt i32 %35, 2
  br i1 %36, label %37, label %45

37:                                               ; preds = %31
  %38 = load ptr, ptr %2, align 8
  %39 = getelementptr inbounds nuw %struct.job_record, ptr %38, i32 0, i32 60
  %40 = load i32, ptr %39, align 8
  %41 = zext i32 %40 to i64
  %42 = and i64 %41, 32768
  %43 = icmp eq i64 %42, 0
  br i1 %43, label %44, label %45

44:                                               ; preds = %37
  store i32 2, ptr %7, align 4
  br label %140, !llvm.loop !19

45:                                               ; preds = %37, %31
  %46 = load ptr, ptr %2, align 8
  %47 = call i32 @_is_fed_job(ptr noundef %46, ptr noundef %4)
  %48 = icmp ne i32 %47, 0
  br i1 %48, label %50, label %49

49:                                               ; preds = %45
  store i32 2, ptr %7, align 4
  br label %140, !llvm.loop !19

50:                                               ; preds = %45
  %51 = load ptr, ptr %2, align 8
  %52 = getelementptr inbounds nuw %struct.job_record, ptr %51, i32 0, i32 39
  %53 = load ptr, ptr %52, align 8
  %54 = getelementptr inbounds nuw %struct.job_fed_details_t, ptr %53, i32 0, i32 4
  %55 = load i64, ptr %54, align 8
  store i64 %55, ptr %9, align 8
  %56 = load i32, ptr %5, align 4
  %57 = load i32, ptr %4, align 4
  %58 = icmp eq i32 %56, %57
  br i1 %58, label %59, label %67

59:                                               ; preds = %50
  %60 = load ptr, ptr %2, align 8
  %61 = getelementptr inbounds nuw %struct.job_record, ptr %60, i32 0, i32 39
  %62 = load ptr, ptr %61, align 8
  %63 = getelementptr inbounds nuw %struct.job_fed_details_t, ptr %62, i32 0, i32 0
  %64 = load i32, ptr %63, align 8
  %65 = icmp ne i32 %64, 0
  br i1 %65, label %66, label %67

66:                                               ; preds = %59
  store i8 1, ptr %8, align 1
  br label %67

67:                                               ; preds = %66, %59, %50
  %68 = load ptr, ptr %2, align 8
  %69 = getelementptr inbounds nuw %struct.job_record, ptr %68, i32 0, i32 39
  call void @job_record_free_fed_details(ptr noundef %69)
  %70 = load ptr, ptr %2, align 8
  %71 = getelementptr inbounds nuw %struct.job_record, ptr %70, i32 0, i32 60
  %72 = load i32, ptr %71, align 8
  %73 = and i32 %72, 255
  %74 = icmp ugt i32 %73, 2
  br i1 %74, label %75, label %82

75:                                               ; preds = %67
  %76 = load ptr, ptr %2, align 8
  %77 = getelementptr inbounds nuw %struct.job_record, ptr %76, i32 0, i32 60
  %78 = load i32, ptr %77, align 8
  %79 = zext i32 %78 to i64
  %80 = and i64 %79, 32768
  %81 = icmp eq i64 %80, 0
  br i1 %81, label %95, label %82

82:                                               ; preds = %75, %67
  %83 = load ptr, ptr %2, align 8
  %84 = getelementptr inbounds nuw %struct.job_record, ptr %83, i32 0, i32 60
  %85 = load i32, ptr %84, align 8
  %86 = zext i32 %85 to i64
  %87 = and i64 %86, 32768
  %88 = icmp ne i64 %87, 0
  br i1 %88, label %95, label %89

89:                                               ; preds = %82
  %90 = load ptr, ptr %2, align 8
  %91 = getelementptr inbounds nuw %struct.job_record, ptr %90, i32 0, i32 60
  %92 = load i32, ptr %91, align 8
  %93 = and i32 %92, 255
  %94 = icmp eq i32 %93, 1
  br i1 %94, label %95, label %96

95:                                               ; preds = %89, %82, %75
  store i32 2, ptr %7, align 4
  br label %140, !llvm.loop !19

96:                                               ; preds = %89
  %97 = load i64, ptr %9, align 8
  %98 = load i64, ptr %6, align 8
  %99 = xor i64 %98, -1
  %100 = and i64 %97, %99
  %101 = icmp ne i64 %100, 0
  br i1 %101, label %103, label %102

102:                                              ; preds = %96
  store i32 2, ptr %7, align 4
  br label %140, !llvm.loop !19

103:                                              ; preds = %96
  %104 = load i32, ptr %4, align 4
  %105 = load i32, ptr %5, align 4
  %106 = icmp eq i32 %104, %105
  br i1 %106, label %107, label %121

107:                                              ; preds = %103
  %108 = load ptr, ptr %2, align 8
  %109 = getelementptr inbounds nuw %struct.job_record, ptr %108, i32 0, i32 60
  %110 = load i32, ptr %109, align 8
  %111 = and i32 %110, 255
  %112 = icmp eq i32 %111, 0
  br i1 %112, label %113, label %121

113:                                              ; preds = %107
  %114 = load ptr, ptr %2, align 8
  %115 = getelementptr inbounds nuw %struct.job_record, ptr %114, i32 0, i32 60
  %116 = load i32, ptr %115, align 8
  %117 = zext i32 %116 to i64
  %118 = and i64 %117, 524288
  %119 = icmp ne i64 %118, 0
  br i1 %119, label %121, label %120

120:                                              ; preds = %113
  store i32 2, ptr %7, align 4
  br label %140, !llvm.loop !19

121:                                              ; preds = %113, %107, %103
  %122 = load i8, ptr %8, align 1, !range !11, !noundef !12
  %123 = trunc i8 %122 to i1
  br i1 %123, label %128, label %124

124:                                              ; preds = %121
  %125 = load i32, ptr %4, align 4
  %126 = load i32, ptr %5, align 4
  %127 = icmp ne i32 %125, %126
  br i1 %127, label %128, label %131

128:                                              ; preds = %124, %121
  %129 = load ptr, ptr %2, align 8
  %130 = getelementptr inbounds nuw %struct.job_record, ptr %129, i32 0, i32 116
  call void @slurm_xfree(ptr noundef %130)
  br label %131

131:                                              ; preds = %128, %124
  %132 = load ptr, ptr %2, align 8
  call void @job_state_set(ptr noundef %132, i32 noundef 524292)
  %133 = load i64, ptr %3, align 8
  %134 = load ptr, ptr %2, align 8
  %135 = getelementptr inbounds nuw %struct.job_record, ptr %134, i32 0, i32 124
  store i64 %133, ptr %135, align 8
  %136 = load i64, ptr %3, align 8
  %137 = load ptr, ptr %2, align 8
  %138 = getelementptr inbounds nuw %struct.job_record, ptr %137, i32 0, i32 32
  store i64 %136, ptr %138, align 8
  %139 = load ptr, ptr %2, align 8
  call void @job_completion_logger(ptr noundef %139, i1 noundef zeroext false)
  store i32 0, ptr %7, align 4
  br label %140

140:                                              ; preds = %131, %120, %102, %95, %49, %44
  call void @llvm.lifetime.end.p0(i64 8, ptr %9) #9
  call void @llvm.lifetime.end.p0(i64 1, ptr %8) #9
  %141 = load i32, ptr %7, align 4
  switch i32 %141, label %189 [
    i32 0, label %142
    i32 2, label %27
  ]

142:                                              ; preds = %140
  br label %27, !llvm.loop !19

143:                                              ; preds = %27
  %144 = load ptr, ptr %1, align 8
  call void @list_iterator_destroy(ptr noundef %144)
  %145 = load ptr, ptr @remote_dep_job_list, align 8
  %146 = icmp ne ptr %145, null
  br i1 %146, label %147, label %185

147:                                              ; preds = %143
  br label %148

148:                                              ; preds = %147
  %149 = load i64, ptr getelementptr inbounds nuw (%struct.slurm_conf_t, ptr @slurm_conf, i32 0, i32 42), align 8
  %150 = and i64 %149, 281474976710656
  %151 = icmp ne i64 %150, 0
  br i1 %151, label %152, label %160

152:                                              ; preds = %148
  br label %153

153:                                              ; preds = %152
  %154 = call i32 @get_log_level()
  %155 = icmp sge i32 %154, 4
  br i1 %155, label %156, label %157

156:                                              ; preds = %153
  call void (i32, ptr, ...) @log_var(i32 noundef 4, ptr noundef @.str.163, ptr noundef @__func__._cleanup_removed_origin_jobs)
  br label %157

157:                                              ; preds = %156, %153
  br label %158

158:                                              ; preds = %157
  br label %159

159:                                              ; preds = %158
  br label %160

160:                                              ; preds = %159, %148
  br label %161

161:                                              ; preds = %160
  br label %162

162:                                              ; preds = %161
  br label %163

163:                                              ; preds = %162
  call void @llvm.lifetime.start.p0(i64 4, ptr %10) #9
  %164 = call i32 @pthread_mutex_lock(ptr noundef @dep_job_list_mutex) #9
  store i32 %164, ptr %10, align 4
  %165 = load i32, ptr %10, align 4
  %166 = icmp ne i32 %165, 0
  br i1 %166, label %167, label %170

167:                                              ; preds = %163
  %168 = load i32, ptr %10, align 4
  %169 = call ptr @__errno_location() #10
  store i32 %168, ptr %169, align 4
  call void (ptr, ...) @fatal_abort(ptr noundef @.str.1, ptr noundef @__func__._cleanup_removed_origin_jobs) #11
  unreachable

170:                                              ; preds = %163
  call void @llvm.lifetime.end.p0(i64 4, ptr %10) #9
  br label %171

171:                                              ; preds = %170
  br label %172

172:                                              ; preds = %171
  %173 = load ptr, ptr @remote_dep_job_list, align 8
  %174 = call i32 @list_flush(ptr noundef %173)
  br label %175

175:                                              ; preds = %172
  call void @llvm.lifetime.start.p0(i64 4, ptr %11) #9
  %176 = call i32 @pthread_mutex_unlock(ptr noundef @dep_job_list_mutex) #9
  store i32 %176, ptr %11, align 4
  %177 = load i32, ptr %11, align 4
  %178 = icmp ne i32 %177, 0
  br i1 %178, label %179, label %182

179:                                              ; preds = %175
  %180 = load i32, ptr %11, align 4
  %181 = call ptr @__errno_location() #10
  store i32 %180, ptr %181, align 4
  call void (ptr, ...) @fatal_abort(ptr noundef @.str.2, ptr noundef @__func__._cleanup_removed_origin_jobs) #11
  unreachable

182:                                              ; preds = %175
  call void @llvm.lifetime.end.p0(i64 4, ptr %11) #9
  br label %183

183:                                              ; preds = %182
  br label %184

184:                                              ; preds = %183
  br label %185

185:                                              ; preds = %184, %143
  store i32 0, ptr %7, align 4
  br label %186

186:                                              ; preds = %185, %15
  call void @llvm.lifetime.end.p0(i64 8, ptr %6) #9
  call void @llvm.lifetime.end.p0(i64 4, ptr %5) #9
  call void @llvm.lifetime.end.p0(i64 4, ptr %4) #9
  call void @llvm.lifetime.end.p0(i64 8, ptr %3) #9
  call void @llvm.lifetime.end.p0(i64 8, ptr %2) #9
  call void @llvm.lifetime.end.p0(i64 8, ptr %1) #9
  %187 = load i32, ptr %7, align 4
  switch i32 %187, label %189 [
    i32 0, label %188
    i32 1, label %188
  ]

188:                                              ; preds = %186, %186
  ret void

189:                                              ; preds = %186, %140
  unreachable
}