; Function Attrs: nounwind uwtable
define internal fastcc void @_cleanup_removed_origin_jobs() unnamed_addr #0 {
  %1 = tail call i64 @time(ptr noundef null) #16
  %2 = load ptr, ptr @fed_mgr_cluster_rec, align 8
  %.not = icmp eq ptr %2, null
  br i1 %.not, label %78, label %3

3:                                                ; preds = %0
  %4 = getelementptr inbounds nuw i8, ptr %2, i64 192
  %5 = load i32, ptr %4, align 8
  %6 = load ptr, ptr @job_list, align 8
  %7 = tail call ptr @list_iterator_create(ptr noundef %6) #16
  %8 = tail call ptr @list_next(ptr noundef %7) #16
  %.not3661 = icmp eq ptr %8, null
  br i1 %.not3661, label %._crit_edge, label %.lr.ph

.lr.ph:                                           ; preds = %3
  %9 = add i32 %5, -1
  %10 = zext nneg i32 %9 to i64
  %11 = shl nuw i64 1, %10
  %12 = xor i64 %11, -1
  br label %13

13:                                               ; preds = %.lr.ph, %_is_fed_job.exit.thread
  %14 = phi ptr [ %8, %.lr.ph ], [ %59, %_is_fed_job.exit.thread ]
  %15 = getelementptr inbounds nuw i8, ptr %14, i64 448
  %16 = load i32, ptr %15, align 8
  %17 = and i32 %16, 255
  %18 = icmp samesign ugt i32 %17, 2
  %19 = and i32 %16, 32768
  %20 = icmp eq i32 %19, 0
  %or.cond = and i1 %18, %20
  %21 = load ptr, ptr @fed_mgr_cluster_rec, align 8
  %.not.i = icmp eq ptr %21, null
  %or.cond59 = select i1 %or.cond, i1 true, i1 %.not.i
  br i1 %or.cond59, label %_is_fed_job.exit.thread, label %22, !llvm.loop !22

22:                                               ; preds = %13
  %23 = getelementptr inbounds nuw i8, ptr %14, i64 280
  %24 = load ptr, ptr %23, align 8
  %.not4.i = icmp eq ptr %24, null
  br i1 %.not4.i, label %28, label %25

25:                                               ; preds = %22
  %26 = getelementptr inbounds nuw i8, ptr %14, i64 392
  %27 = load i32, ptr %26, align 8
  %.not5.i = icmp ult i32 %27, 67108864
  br i1 %.not5.i, label %28, label %_is_fed_job.exit

28:                                               ; preds = %25, %22
  %29 = tail call i32 @get_log_level() #16
  %30 = icmp sgt i32 %29, 5
  br i1 %30, label %31, label %_is_fed_job.exit.thread

31:                                               ; preds = %28
  tail call void (i32, ptr, ...) @log_var(i32 noundef 6, ptr noundef nonnull @.str.183, ptr noundef nonnull %14) #16
  br label %_is_fed_job.exit.thread

_is_fed_job.exit:                                 ; preds = %25
  %32 = lshr i32 %27, 26
  %33 = getelementptr inbounds nuw i8, ptr %24, i64 32
  %34 = load i64, ptr %33, align 8
  %35 = icmp eq i32 %5, %32
  br i1 %35, label %36, label %38

36:                                               ; preds = %_is_fed_job.exit
  %37 = load i32, ptr %24, align 8
  %.not42 = icmp eq i32 %37, 0
  br label %38

38:                                               ; preds = %36, %_is_fed_job.exit
  %.0 = phi i1 [ true, %_is_fed_job.exit ], [ %.not42, %36 ]
  tail call void @job_record_free_fed_details(ptr noundef nonnull %23) #16
  %39 = load i32, ptr %15, align 8
  %40 = and i32 %39, 255
  %41 = icmp samesign ugt i32 %40, 2
  %42 = and i32 %39, 32768
  %43 = icmp eq i32 %42, 0
  %or.cond49 = and i1 %41, %43
  br i1 %or.cond49, label %_is_fed_job.exit.thread, label %44, !llvm.loop !22

44:                                               ; preds = %38
  %45 = zext i32 %39 to i64
  %46 = and i64 %45, 32768
  %.not43 = icmp ne i64 %46, 0
  %47 = icmp eq i32 %40, 1
  %or.cond60 = or i1 %47, %.not43
  %48 = and i64 %34, %12
  %.not44 = icmp eq i64 %48, 0
  %or.cond62 = select i1 %or.cond60, i1 true, i1 %.not44
  br i1 %or.cond62, label %_is_fed_job.exit.thread, label %49, !llvm.loop !22

49:                                               ; preds = %44
  %50 = icmp eq i32 %40, 0
  %51 = and i64 %45, 524288
  %.not45 = icmp eq i64 %51, 0
  %52 = and i1 %50, %.not45
  %or.cond51 = and i1 %35, %52
  br i1 %or.cond51, label %_is_fed_job.exit.thread, label %53, !llvm.loop !22

53:                                               ; preds = %49
  %or.cond52 = and i1 %35, %.0
  br i1 %or.cond52, label %56, label %54

54:                                               ; preds = %53
  %55 = getelementptr inbounds nuw i8, ptr %14, i64 856
  tail call void @slurm_xfree(ptr noundef nonnull %55) #16
  br label %56

56:                                               ; preds = %53, %54
  tail call void @job_state_set(ptr noundef nonnull %14, i32 noundef 524292) #16
  %57 = getelementptr inbounds nuw i8, ptr %14, i64 912
  store i64 %1, ptr %57, align 8
  %58 = getelementptr inbounds nuw i8, ptr %14, i64 232
  store i64 %1, ptr %58, align 8
  tail call void @job_completion_logger(ptr noundef nonnull %14, i1 noundef zeroext false) #16
  br label %_is_fed_job.exit.thread

_is_fed_job.exit.thread:                          ; preds = %28, %31, %49, %44, %38, %13, %56
  %59 = tail call ptr @list_next(ptr noundef %7) #16
  %.not36 = icmp eq ptr %59, null
  br i1 %.not36, label %._crit_edge, label %13

._crit_edge:                                      ; preds = %_is_fed_job.exit.thread, %3
  tail call void @list_iterator_destroy(ptr noundef %7) #16
  %60 = load ptr, ptr @remote_dep_job_list, align 8
  %.not37 = icmp eq ptr %60, null
  br i1 %.not37, label %78, label %61

61:                                               ; preds = %._crit_edge
  %62 = load i64, ptr getelementptr inbounds nuw (i8, ptr @slurm_conf, i64 320), align 8
  %63 = and i64 %62, 281474976710656
  %.not38 = icmp eq i64 %63, 0
  br i1 %.not38, label %68, label %64

64:                                               ; preds = %61
  %65 = tail call i32 @get_log_level() #16
  %66 = icmp sgt i32 %65, 3
  br i1 %66, label %67, label %68

67:                                               ; preds = %64
  tail call void (i32, ptr, ...) @log_var(i32 noundef 4, ptr noundef nonnull @.str.163, ptr noundef nonnull @__func__._cleanup_removed_origin_jobs) #16
  br label %68

68:                                               ; preds = %61, %67, %64
  %69 = tail call i32 @pthread_mutex_lock(ptr noundef nonnull @dep_job_list_mutex) #16
  %.not39 = icmp eq i32 %69, 0
  br i1 %.not39, label %72, label %70

70:                                               ; preds = %68
  %71 = tail call ptr @__errno_location() #17
  store i32 %69, ptr %71, align 4
  tail call void (ptr, ...) @fatal_abort(ptr noundef nonnull @.str.1, ptr noundef nonnull @__func__._cleanup_removed_origin_jobs) #18
  unreachable

72:                                               ; preds = %68
  %73 = load ptr, ptr @remote_dep_job_list, align 8
  %74 = tail call i32 @list_flush(ptr noundef %73) #16
  %75 = tail call i32 @pthread_mutex_unlock(ptr noundef nonnull @dep_job_list_mutex) #16
  %.not40 = icmp eq i32 %75, 0
  br i1 %.not40, label %78, label %76

76:                                               ; preds = %72
  %77 = tail call ptr @__errno_location() #17
  store i32 %75, ptr %77, align 4
  tail call void (ptr, ...) @fatal_abort(ptr noundef nonnull @.str.2, ptr noundef nonnull @__func__._cleanup_removed_origin_jobs) #18
  unreachable

78:                                               ; preds = %._crit_edge, %72, %0
  ret void
}